; Function Attrs: mustprogress uwtable
define hidden noundef range(i32 1, 5) i32 @_ZN19OpenColorIO_v2_5dev21GetChannelSizeInBytesENS_8BitDepthE(i32 noundef %0) local_unnamed_addr #3 personality ptr @__gxx_personality_v0 {
  %2 = alloca %"class.std::__cxx11::basic_string", align 8
  %3 = alloca %"class.std::allocator", align 1
  %switch.tableidx = add i32 %0, -1
  %4 = icmp ult i32 %switch.tableidx, 8
  br i1 %4, label %switch.hole_check, label %5

5:                                                ; preds = %switch.hole_check, %1
  call void @llvm.lifetime.start.p0(i64 32, ptr nonnull %2) #10
  call void @llvm.lifetime.start.p0(i64 1, ptr nonnull %3) #10
  call void @_ZNSt7__cxx1112basic_stringIcSt11char_traitsIcESaIcEEC2EPKcRKS3_(ptr noundef nonnull align 8 dereferenceable(32) %2, ptr noundef nonnull @_ZN12_GLOBAL__N_117errBDNotSupportedE, ptr noundef nonnull align 1 dereferenceable(1) %3)
  call void @llvm.lifetime.end.p0(i64 1, ptr nonnull %3) #10
  %6 = invoke noundef ptr @_ZN19OpenColorIO_v2_5dev16BitDepthToStringENS_8BitDepthE(i32 noundef %0)
          to label %7 unwind label %15

7:                                                ; preds = %5
  %8 = invoke noundef nonnull align 8 dereferenceable(32) ptr @_ZNSt7__cxx1112basic_stringIcSt11char_traitsIcESaIcEEpLEPKc(ptr noundef nonnull align 8 dereferenceable(32) %2, ptr noundef %6)
          to label %9 unwind label %15

9:                                                ; preds = %7
  %10 = invoke noundef nonnull align 8 dereferenceable(32) ptr @_ZNSt7__cxx1112basic_stringIcSt11char_traitsIcESaIcEEpLEPKc(ptr noundef nonnull align 8 dereferenceable(32) %2, ptr noundef nonnull @.str)
          to label %11 unwind label %15

11:                                               ; preds = %9
  %12 = call ptr @__cxa_allocate_exception(i64 16) #10
  %13 = load ptr, ptr %2, align 8, !tbaa !3
  invoke void @_ZN19OpenColorIO_v2_5dev9ExceptionC1EPKc(ptr noundef nonnull align 8 dereferenceable(16) %12, ptr noundef %13)
          to label %14 unwind label %17

14:                                               ; preds = %11
  invoke void @__cxa_throw(ptr nonnull %12, ptr nonnull @_ZTIN19OpenColorIO_v2_5dev9ExceptionE, ptr nonnull @_ZN19OpenColorIO_v2_5dev9ExceptionD1Ev) #11
          to label %29 unwind label %15

15:                                               ; preds = %14, %9, %7, %5
  %16 = landingpad { ptr, i32 }
          cleanup
  br label %19

17:                                               ; preds = %11
  %18 = landingpad { ptr, i32 }
          cleanup
  call void @__cxa_free_exception(ptr nonnull %12) #10
  br label %19

19:                                               ; preds = %17, %15
  %.pn = phi { ptr, i32 } [ %16, %15 ], [ %18, %17 ]
  %20 = load ptr, ptr %2, align 8, !tbaa !3
  %21 = getelementptr inbounds nuw i8, ptr %2, i64 16
  %22 = icmp eq ptr %20, %21
  br i1 %22, label %_ZNKSt7__cxx1112basic_stringIcSt11char_traitsIcESaIcEE11_M_is_localEv.exit.thread.i.i, label %_ZNKSt7__cxx1112basic_stringIcSt11char_traitsIcESaIcEE11_M_is_localEv.exit.i.i

_ZNKSt7__cxx1112basic_stringIcSt11char_traitsIcESaIcEE11_M_is_localEv.exit.thread.i.i: ; preds = %19
  %23 = getelementptr inbounds nuw i8, ptr %2, i64 8
  %24 = load i64, ptr %23, align 8, !tbaa !11
  %25 = icmp ult i64 %24, 16
  call void @llvm.assume(i1 %25)
  br label %_ZNSt7__cxx1112basic_stringIcSt11char_traitsIcESaIcEED2Ev.exit

_ZNKSt7__cxx1112basic_stringIcSt11char_traitsIcESaIcEE11_M_is_localEv.exit.i.i: ; preds = %19
  %26 = load i64, ptr %21, align 8, !tbaa !12
  %27 = add i64 %26, 1
  call void @_ZdlPvm(ptr noundef %20, i64 noundef %27) #12
  br label %_ZNSt7__cxx1112basic_stringIcSt11char_traitsIcESaIcEED2Ev.exit

_ZNSt7__cxx1112basic_stringIcSt11char_traitsIcESaIcEED2Ev.exit: ; preds = %_ZNKSt7__cxx1112basic_stringIcSt11char_traitsIcESaIcEE11_M_is_localEv.exit.i.i, %_ZNKSt7__cxx1112basic_stringIcSt11char_traitsIcESaIcEE11_M_is_localEv.exit.thread.i.i
  call void @llvm.lifetime.end.p0(i64 32, ptr nonnull %2) #10
  resume { ptr, i32 } %.pn

switch.hole_check:                                ; preds = %1
  %switch.maskindex = trunc nuw i32 %switch.tableidx to i8
  %switch.shifted = lshr i8 -41, %switch.maskindex
  %switch.lobit = trunc i8 %switch.shifted to i1
  br i1 %switch.lobit, label %switch.lookup, label %5

switch.lookup:                                    ; preds = %switch.hole_check
  %28 = zext nneg i32 %switch.tableidx to i64
  %switch.gep = getelementptr inbounds nuw [8 x i32], ptr @switch.table._ZN19OpenColorIO_v2_5dev21GetChannelSizeInBytesENS_8BitDepthE, i64 0, i64 %28
  %switch.load = load i32, ptr %switch.gep, align 4
  ret i32 %switch.load

29:                                               ; preds = %14
  unreachable
}